target datalayout = "e-m:e-p270:32:32-p271:32:32-p272:64:64-i64:64-i128:128-f80:128-n8:16:32:64-S128"
target triple = "x86_64-pc-linux-gnu"

%struct.wl_list = type { ptr, ptr }
%struct.SDL_AtomicInt = type { i32 }
%struct.SDL_WaylandDataDevice = type { ptr, ptr, ptr, i32, ptr, ptr, ptr, i8, i8, ptr, i32, ptr }
%struct.SDL_WindowData = type { ptr, ptr, ptr, ptr, ptr, ptr, ptr, %union.anon, i32, i32, i32, i32, ptr, ptr, ptr, ptr, ptr, ptr, ptr, ptr, ptr, ptr, ptr, ptr, ptr, ptr, %struct.SDL_AtomicInt, ptr, i32, ptr, double, ptr, i32, i32, i32, i32, %struct.anon.14, %struct.anon.15, %struct.anon.16, %struct.anon.17, %struct.anon.18, %struct.anon.19, %struct.anon.20, i32, i32, i32, i64, i32, i32, i8, i8, i8, i8, i8, i8, i8, i8, i8, i8, i8, i8, i8, i8, i32, %struct.wl_list }
%union.anon = type { %struct.anon.10 }
%struct.anon.10 = type { ptr, %union.anon.11, i8 }
%union.anon.11 = type { %struct.anon.13 }
%struct.anon.13 = type { ptr, ptr }
%struct.anon.14 = type { double, double }
%struct.anon.15 = type { i32, i32, i32, i32 }
%struct.anon.16 = type { i32, i32, i32, i32 }
%struct.anon.17 = type { i32, i32 }
%struct.anon.18 = type { i32, i32 }
%struct.anon.19 = type { i32, i32 }
%struct.anon.20 = type { i32, i32, i8 }
%struct.SDL_WaylandDataOffer = type { ptr, %struct.wl_list, ptr, ptr, i32 }
%union.anon.21 = type { double }

@WAYLAND_wl_proxy_marshal_flags = external global ptr, align 8
@WAYLAND_wl_proxy_get_version = external global ptr, align 8
@WAYLAND_wl_proxy_get_id = external global ptr, align 8
@.str.11 = private unnamed_addr constant [36 x i8] c"application/vnd.portal.filetransfer\00", align 1
@.str.12 = private unnamed_addr constant [14 x i8] c"text/uri-list\00", align 1
@.str.13 = private unnamed_addr constant [117 x i8] c". In wl_data_device_listener . data_device_handle_enter on data_offer 0x%08x at %d x %d into window %d for serial %d\00", align 1
@.str.14 = private unnamed_addr constant [102 x i8] c". In wl_data_device_listener . data_device_handle_enter on data_offer 0x%08x at %d x %d for serial %d\00", align 1
@WAYLAND_wl_proxy_get_user_data = external global ptr, align 8

; Function Attrs: inlinehint nounwind uwtable
define internal i32 @wl_fixed_to_int(i32 noundef %0) #2 {
  %2 = alloca i32, align 4
  store i32 %0, ptr %2, align 4
  %3 = load i32, ptr %2, align 4
  %4 = sdiv i32 %3, 256
  ret i32 %4
}

; Function Attrs: inlinehint nounwind uwtable
define internal double @wl_fixed_to_double(i32 noundef %0) #2 {
  %2 = alloca i32, align 4
  %3 = alloca %union.anon.21, align 8
  store i32 %0, ptr %2, align 4
  call void @llvm.lifetime.start.p0(i64 8, ptr %3) #10
  %4 = load i32, ptr %2, align 4
  %5 = sext i32 %4 to i64
  %6 = add nsw i64 4807592602218004480, %5
  store i64 %6, ptr %3, align 8
  %7 = load double, ptr %3, align 8
  %8 = fsub double %7, 0x42B8000000000000
  call void @llvm.lifetime.end.p0(i64 8, ptr %3) #10
  ret double %8
}

; Function Attrs: inlinehint nounwind uwtable
define internal void @wl_data_offer_set_actions(ptr noundef %0, i32 noundef %1, i32 noundef %2) #2 {
  %4 = alloca ptr, align 8
  %5 = alloca i32, align 4
  %6 = alloca i32, align 4
  store ptr %0, ptr %4, align 8
  store i32 %1, ptr %5, align 4
  store i32 %2, ptr %6, align 4
  %7 = load ptr, ptr @WAYLAND_wl_proxy_marshal_flags, align 8
  %8 = load ptr, ptr %4, align 8
  %9 = load ptr, ptr @WAYLAND_wl_proxy_get_version, align 8
  %10 = load ptr, ptr %4, align 8
  %11 = call i32 %9(ptr noundef %10)
  %12 = load i32, ptr %5, align 4
  %13 = load i32, ptr %6, align 4
  %14 = call ptr (ptr, i32, ptr, i32, i32, ...) %7(ptr noundef %8, i32 noundef 4, ptr noundef null, i32 noundef %11, i32 noundef 0, i32 noundef %12, i32 noundef %13)
  ret void
}

; Function Attrs: inlinehint nounwind uwtable
define internal i32 @wl_data_offer_get_version(ptr noundef %0) #2 {
  %2 = alloca ptr, align 8
  store ptr %0, ptr %2, align 8
  %3 = load ptr, ptr @WAYLAND_wl_proxy_get_version, align 8
  %4 = load ptr, ptr %2, align 8
  %5 = call i32 %3(ptr noundef %4)
  ret i32 %5
}

; Function Attrs: inlinehint nounwind uwtable
define internal void @wl_data_offer_accept(ptr noundef %0, i32 noundef %1, ptr noundef %2) #2 {
  %4 = alloca ptr, align 8
  %5 = alloca i32, align 4
  %6 = alloca ptr, align 8
  store ptr %0, ptr %4, align 8
  store i32 %1, ptr %5, align 4
  store ptr %2, ptr %6, align 8
  %7 = load ptr, ptr @WAYLAND_wl_proxy_marshal_flags, align 8
  %8 = load ptr, ptr %4, align 8
  %9 = load ptr, ptr @WAYLAND_wl_proxy_get_version, align 8
  %10 = load ptr, ptr %4, align 8
  %11 = call i32 %9(ptr noundef %10)
  %12 = load i32, ptr %5, align 4
  %13 = load ptr, ptr %6, align 8
  %14 = call ptr (ptr, i32, ptr, i32, i32, ...) %7(ptr noundef %8, i32 noundef 0, ptr noundef null, i32 noundef %11, i32 noundef 0, i32 noundef %12, ptr noundef %13)
  ret void
}

; Function Attrs: inlinehint nounwind uwtable
define internal ptr @wl_data_offer_get_user_data(ptr noundef %0) #2 {
  %2 = alloca ptr, align 8
  store ptr %0, ptr %2, align 8
  %3 = load ptr, ptr @WAYLAND_wl_proxy_get_user_data, align 8
  %4 = load ptr, ptr %2, align 8
  %5 = call ptr %3(ptr noundef %4)
  ret ptr %5
}

; Function Attrs: nounwind uwtable
define internal void @data_device_handle_enter(ptr noundef %0, ptr noundef %1, i32 noundef %2, ptr noundef %3, i32 noundef %4, i32 noundef %5, ptr noundef %6) #0 {
  %8 = alloca ptr, align 8
  %9 = alloca ptr, align 8
  %10 = alloca i32, align 4
  %11 = alloca ptr, align 8
  %12 = alloca i32, align 4
  %13 = alloca i32, align 4
  %14 = alloca ptr, align 8
  %15 = alloca ptr, align 8
  %16 = alloca i32, align 4
  %17 = alloca i64, align 8
  %18 = alloca ptr, align 8
  %19 = alloca i64, align 8
  %20 = alloca i32, align 4
  %21 = alloca ptr, align 8
  %22 = alloca float, align 4
  %23 = alloca float, align 4
  store ptr %0, ptr %8, align 8
  store ptr %1, ptr %9, align 8
  store i32 %2, ptr %10, align 4
  store ptr %3, ptr %11, align 8
  store i32 %4, ptr %12, align 4
  store i32 %5, ptr %13, align 4
  store ptr %6, ptr %14, align 8
  call void @llvm.lifetime.start.p0(i64 8, ptr %15) #10
  %24 = load ptr, ptr %8, align 8
  store ptr %24, ptr %15, align 8
  %25 = load ptr, ptr %15, align 8
  %26 = getelementptr inbounds nuw %struct.SDL_WaylandDataDevice, ptr %25, i32 0, i32 7
  store i8 0, ptr %26, align 8
  %27 = load ptr, ptr %15, align 8
  %28 = getelementptr inbounds nuw %struct.SDL_WaylandDataDevice, ptr %27, i32 0, i32 8
  store i8 0, ptr %28, align 1
  call void @llvm.lifetime.start.p0(i64 4, ptr %16) #10
  store i32 0, ptr %16, align 4
  %29 = load i32, ptr %10, align 4
  %30 = load ptr, ptr %15, align 8
  %31 = getelementptr inbounds nuw %struct.SDL_WaylandDataDevice, ptr %30, i32 0, i32 3
  store i32 %29, ptr %31, align 8
  %32 = load ptr, ptr %14, align 8
  %33 = icmp ne ptr %32, null
  br i1 %33, label %34, label %189

34:                                               ; preds = %7
  %35 = load ptr, ptr %14, align 8
  %36 = call ptr @wl_data_offer_get_user_data(ptr noundef %35)
  %37 = load ptr, ptr %15, align 8
  %38 = getelementptr inbounds nuw %struct.SDL_WaylandDataDevice, ptr %37, i32 0, i32 4
  store ptr %36, ptr %38, align 8
  %39 = load ptr, ptr %15, align 8
  %40 = getelementptr inbounds nuw %struct.SDL_WaylandDataDevice, ptr %39, i32 0, i32 4
  %41 = load ptr, ptr %40, align 8
  %42 = call zeroext i1 @Wayland_data_offer_has_mime(ptr noundef %41, ptr noundef @.str.11)
  br i1 %42, label %43, label %50

43:                                               ; preds = %34
  %44 = load ptr, ptr %15, align 8
  %45 = getelementptr inbounds nuw %struct.SDL_WaylandDataDevice, ptr %44, i32 0, i32 7
  store i8 1, ptr %45, align 8
  %46 = load ptr, ptr %15, align 8
  %47 = getelementptr inbounds nuw %struct.SDL_WaylandDataDevice, ptr %46, i32 0, i32 6
  store ptr @.str.11, ptr %47, align 8
  %48 = load ptr, ptr %14, align 8
  %49 = load i32, ptr %10, align 4
  call void @wl_data_offer_accept(ptr noundef %48, i32 noundef %49, ptr noundef @.str.11)
  br label %50

50:                                               ; preds = %43, %34
  %51 = load ptr, ptr %15, align 8
  %52 = getelementptr inbounds nuw %struct.SDL_WaylandDataDevice, ptr %51, i32 0, i32 4
  %53 = load ptr, ptr %52, align 8
  %54 = call zeroext i1 @Wayland_data_offer_has_mime(ptr noundef %53, ptr noundef @.str.12)
  br i1 %54, label %55, label %62

55:                                               ; preds = %50
  %56 = load ptr, ptr %15, align 8
  %57 = getelementptr inbounds nuw %struct.SDL_WaylandDataDevice, ptr %56, i32 0, i32 7
  store i8 1, ptr %57, align 8
  %58 = load ptr, ptr %15, align 8
  %59 = getelementptr inbounds nuw %struct.SDL_WaylandDataDevice, ptr %58, i32 0, i32 6
  store ptr @.str.12, ptr %59, align 8
  %60 = load ptr, ptr %14, align 8
  %61 = load i32, ptr %10, align 4
  call void @wl_data_offer_accept(ptr noundef %60, i32 noundef %61, ptr noundef @.str.12)
  br label %62

62:                                               ; preds = %55, %50
  call void @llvm.lifetime.start.p0(i64 8, ptr %17) #10
  store i64 0, ptr %17, align 8
  call void @llvm.lifetime.start.p0(i64 8, ptr %18) #10
  %63 = call ptr @SDL_GetVideoDevice()
  %64 = call ptr @Wayland_GetTextMimeTypes(ptr noundef %63, ptr noundef %17)
  store ptr %64, ptr %18, align 8
  call void @llvm.lifetime.start.p0(i64 8, ptr %19) #10
  store i64 0, ptr %19, align 8
  br label %65

65:                                               ; preds = %95, %62
  %66 = load i64, ptr %19, align 8
  %67 = load i64, ptr %17, align 8
  %68 = icmp ult i64 %66, %67
  br i1 %68, label %70, label %69

69:                                               ; preds = %65
  store i32 2, ptr %20, align 4
  br label %98

70:                                               ; preds = %65
  %71 = load ptr, ptr %15, align 8
  %72 = getelementptr inbounds nuw %struct.SDL_WaylandDataDevice, ptr %71, i32 0, i32 4
  %73 = load ptr, ptr %72, align 8
  %74 = load ptr, ptr %18, align 8
  %75 = load i64, ptr %19, align 8
  %76 = getelementptr inbounds nuw ptr, ptr %74, i64 %75
  %77 = load ptr, ptr %76, align 8
  %78 = call zeroext i1 @Wayland_data_offer_has_mime(ptr noundef %73, ptr noundef %77)
  br i1 %78, label %79, label %94

79:                                               ; preds = %70
  %80 = load ptr, ptr %15, align 8
  %81 = getelementptr inbounds nuw %struct.SDL_WaylandDataDevice, ptr %80, i32 0, i32 8
  store i8 1, ptr %81, align 1
  %82 = load ptr, ptr %18, align 8
  %83 = load i64, ptr %19, align 8
  %84 = getelementptr inbounds nuw ptr, ptr %82, i64 %83
  %85 = load ptr, ptr %84, align 8
  %86 = load ptr, ptr %15, align 8
  %87 = getelementptr inbounds nuw %struct.SDL_WaylandDataDevice, ptr %86, i32 0, i32 6
  store ptr %85, ptr %87, align 8
  %88 = load ptr, ptr %14, align 8
  %89 = load i32, ptr %10, align 4
  %90 = load ptr, ptr %18, align 8
  %91 = load i64, ptr %19, align 8
  %92 = getelementptr inbounds nuw ptr, ptr %90, i64 %91
  %93 = load ptr, ptr %92, align 8
  call void @wl_data_offer_accept(ptr noundef %88, i32 noundef %89, ptr noundef %93)
  store i32 2, ptr %20, align 4
  br label %98

94:                                               ; preds = %70
  br label %95

95:                                               ; preds = %94
  %96 = load i64, ptr %19, align 8
  %97 = add i64 %96, 1
  store i64 %97, ptr %19, align 8
  br label %65, !llvm.loop !23

98:                                               ; preds = %79, %69
  call void @llvm.lifetime.end.p0(i64 8, ptr %19) #10
  br label %99

99:                                               ; preds = %98
  %100 = load ptr, ptr %15, align 8
  %101 = getelementptr inbounds nuw %struct.SDL_WaylandDataDevice, ptr %100, i32 0, i32 7
  %102 = load i8, ptr %101, align 8, !range !7, !noundef !8
  %103 = trunc i8 %102 to i1
  br i1 %103, label %109, label %104

104:                                              ; preds = %99
  %105 = load ptr, ptr %15, align 8
  %106 = getelementptr inbounds nuw %struct.SDL_WaylandDataDevice, ptr %105, i32 0, i32 8
  %107 = load i8, ptr %106, align 1, !range !7, !noundef !8
  %108 = trunc i8 %107 to i1
  br i1 %108, label %109, label %110

109:                                              ; preds = %104, %99
  store i32 1, ptr %16, align 4
  br label %113

110:                                              ; preds = %104
  %111 = load ptr, ptr %14, align 8
  %112 = load i32, ptr %10, align 4
  call void @wl_data_offer_accept(ptr noundef %111, i32 noundef %112, ptr noundef null)
  br label %113

113:                                              ; preds = %110, %109
  %114 = load ptr, ptr %15, align 8
  %115 = getelementptr inbounds nuw %struct.SDL_WaylandDataDevice, ptr %114, i32 0, i32 4
  %116 = load ptr, ptr %115, align 8
  %117 = getelementptr inbounds nuw %struct.SDL_WaylandDataOffer, ptr %116, i32 0, i32 0
  %118 = load ptr, ptr %117, align 8
  %119 = call i32 @wl_data_offer_get_version(ptr noundef %118)
  %120 = icmp uge i32 %119, 3
  br i1 %120, label %121, label %129

121:                                              ; preds = %113
  %122 = load ptr, ptr %15, align 8
  %123 = getelementptr inbounds nuw %struct.SDL_WaylandDataDevice, ptr %122, i32 0, i32 4
  %124 = load ptr, ptr %123, align 8
  %125 = getelementptr inbounds nuw %struct.SDL_WaylandDataOffer, ptr %124, i32 0, i32 0
  %126 = load ptr, ptr %125, align 8
  %127 = load i32, ptr %16, align 4
  %128 = load i32, ptr %16, align 4
  call void @wl_data_offer_set_actions(ptr noundef %126, i32 noundef %127, i32 noundef %128)
  br label %129

129:                                              ; preds = %121, %113
  %130 = load ptr, ptr %11, align 8
  %131 = icmp ne ptr %130, null
  br i1 %131, label %132, label %179

132:                                              ; preds = %129
  call void @llvm.lifetime.start.p0(i64 8, ptr %21) #10
  %133 = load ptr, ptr %11, align 8
  %134 = call ptr @Wayland_GetWindowDataForOwnedSurface(ptr noundef %133)
  store ptr %134, ptr %21, align 8
  %135 = load ptr, ptr %21, align 8
  %136 = icmp ne ptr %135, null
  br i1 %136, label %137, label %167

137:                                              ; preds = %132
  %138 = load ptr, ptr %21, align 8
  %139 = getelementptr inbounds nuw %struct.SDL_WindowData, ptr %138, i32 0, i32 0
  %140 = load ptr, ptr %139, align 8
  %141 = load ptr, ptr %15, align 8
  %142 = getelementptr inbounds nuw %struct.SDL_WaylandDataDevice, ptr %141, i32 0, i32 9
  store ptr %140, ptr %142, align 8
  call void @llvm.lifetime.start.p0(i64 4, ptr %22) #10
  %143 = load i32, ptr %12, align 4
  %144 = call double @wl_fixed_to_double(i32 noundef %143)
  %145 = fptrunc double %144 to float
  store float %145, ptr %22, align 4
  call void @llvm.lifetime.start.p0(i64 4, ptr %23) #10
  %146 = load i32, ptr %13, align 4
  %147 = call double @wl_fixed_to_double(i32 noundef %146)
  %148 = fptrunc double %147 to float
  store float %148, ptr %23, align 4
  %149 = load ptr, ptr %15, align 8
  %150 = getelementptr inbounds nuw %struct.SDL_WaylandDataDevice, ptr %149, i32 0, i32 9
  %151 = load ptr, ptr %150, align 8
  %152 = load float, ptr %22, align 4
  %153 = load float, ptr %23, align 4
  %154 = call zeroext i1 @SDL_SendDropPosition(ptr noundef %151, float noundef %152, float noundef %153)
  %155 = load ptr, ptr @WAYLAND_wl_proxy_get_id, align 8
  %156 = load ptr, ptr %14, align 8
  %157 = call i32 %155(ptr noundef %156)
  %158 = load i32, ptr %12, align 4
  %159 = call i32 @wl_fixed_to_int(i32 noundef %158)
  %160 = load i32, ptr %13, align 4
  %161 = call i32 @wl_fixed_to_int(i32 noundef %160)
  %162 = load ptr, ptr %15, align 8
  %163 = getelementptr inbounds nuw %struct.SDL_WaylandDataDevice, ptr %162, i32 0, i32 9
  %164 = load ptr, ptr %163, align 8
  %165 = call i32 @SDL_GetWindowID_REAL(ptr noundef %164)
  %166 = load i32, ptr %10, align 4
  call void (i32, ptr, ...) @SDL_LogTrace_REAL(i32 noundef 7, ptr noundef @.str.13, i32 noundef %157, i32 noundef %159, i32 noundef %161, i32 noundef %165, i32 noundef %166)
  call void @llvm.lifetime.end.p0(i64 4, ptr %23) #10
  call void @llvm.lifetime.end.p0(i64 4, ptr %22) #10
  br label %178

167:                                              ; preds = %132
  %168 = load ptr, ptr %15, align 8
  %169 = getelementptr inbounds nuw %struct.SDL_WaylandDataDevice, ptr %168, i32 0, i32 9
  store ptr null, ptr %169, align 8
  %170 = load ptr, ptr @WAYLAND_wl_proxy_get_id, align 8
  %171 = load ptr, ptr %14, align 8
  %172 = call i32 %170(ptr noundef %171)
  %173 = load i32, ptr %12, align 4
  %174 = call i32 @wl_fixed_to_int(i32 noundef %173)
  %175 = load i32, ptr %13, align 4
  %176 = call i32 @wl_fixed_to_int(i32 noundef %175)
  %177 = load i32, ptr %10, align 4
  call void (i32, ptr, ...) @SDL_LogTrace_REAL(i32 noundef 7, ptr noundef @.str.14, i32 noundef %172, i32 noundef %174, i32 noundef %176, i32 noundef %177)
  br label %178

178:                                              ; preds = %167, %137
  call void @llvm.lifetime.end.p0(i64 8, ptr %21) #10
  br label %188

179:                                              ; preds = %129
  %180 = load ptr, ptr @WAYLAND_wl_proxy_get_id, align 8
  %181 = load ptr, ptr %14, align 8
  %182 = call i32 %180(ptr noundef %181)
  %183 = load i32, ptr %12, align 4
  %184 = call i32 @wl_fixed_to_int(i32 noundef %183)
  %185 = load i32, ptr %13, align 4
  %186 = call i32 @wl_fixed_to_int(i32 noundef %185)
  %187 = load i32, ptr %10, align 4
  call void (i32, ptr, ...) @SDL_LogTrace_REAL(i32 noundef 7, ptr noundef @.str.14, i32 noundef %182, i32 noundef %184, i32 noundef %186, i32 noundef %187)
  br label %188

188:                                              ; preds = %179, %178
  call void @llvm.lifetime.end.p0(i64 8, ptr %18) #10
  call void @llvm.lifetime.end.p0(i64 8, ptr %17) #10
  br label %195

189:                                              ; preds = %7
  %190 = load i32, ptr %12, align 4
  %191 = call i32 @wl_fixed_to_int(i32 noundef %190)
  %192 = load i32, ptr %13, align 4
  %193 = call i32 @wl_fixed_to_int(i32 noundef %192)
  %194 = load i32, ptr %10, align 4
  call void (i32, ptr, ...) @SDL_LogTrace_REAL(i32 noundef 7, ptr noundef @.str.14, i32 noundef -1, i32 noundef %191, i32 noundef %193, i32 noundef %194)
  br label %195

195:                                              ; preds = %189, %188
  call void @llvm.lifetime.end.p0(i64 4, ptr %16) #10
  call void @llvm.lifetime.end.p0(i64 8, ptr %15) #10
  ret void
}