; Function Attrs: nounwind uwtable
define internal void @data_device_handle_enter(ptr noundef captures(none) initializes((24, 28), (56, 58)) %0, ptr readnone captures(none) %1, i32 noundef %2, ptr noundef %3, i32 noundef %4, i32 noundef %5, ptr noundef %6) #0 {
  %8 = alloca i64, align 8
  %9 = getelementptr inbounds nuw i8, ptr %0, i64 56
  store i8 0, ptr %9, align 8
  %10 = getelementptr inbounds nuw i8, ptr %0, i64 57
  store i8 0, ptr %10, align 1
  %11 = getelementptr inbounds nuw i8, ptr %0, i64 24
  store i32 %2, ptr %11, align 8
  %.not = icmp eq ptr %6, null
  br i1 %.not, label %110, label %12

12:                                               ; preds = %7
  %13 = load ptr, ptr @WAYLAND_wl_proxy_get_user_data, align 8
  %14 = tail call ptr %13(ptr noundef nonnull %6) #12
  %15 = getelementptr inbounds nuw i8, ptr %0, i64 32
  store ptr %14, ptr %15, align 8
  %16 = tail call zeroext i1 @Wayland_data_offer_has_mime(ptr noundef %14, ptr noundef nonnull @.str.11) #12
  br i1 %16, label %17, label %23

17:                                               ; preds = %12
  store i8 1, ptr %9, align 8
  %18 = getelementptr inbounds nuw i8, ptr %0, i64 48
  store ptr @.str.11, ptr %18, align 8
  %19 = load ptr, ptr @WAYLAND_wl_proxy_marshal_flags, align 8
  %20 = load ptr, ptr @WAYLAND_wl_proxy_get_version, align 8
  %21 = tail call i32 %20(ptr noundef nonnull %6) #12
  %22 = tail call ptr (ptr, i32, ptr, i32, i32, ...) %19(ptr noundef nonnull %6, i32 noundef 0, ptr noundef null, i32 noundef %21, i32 noundef 0, i32 noundef %2, ptr noundef nonnull @.str.11) #12
  br label %23

23:                                               ; preds = %17, %12
  %24 = load ptr, ptr %15, align 8
  %25 = tail call zeroext i1 @Wayland_data_offer_has_mime(ptr noundef %24, ptr noundef nonnull @.str.12) #12
  br i1 %25, label %26, label %32

26:                                               ; preds = %23
  store i8 1, ptr %9, align 8
  %27 = getelementptr inbounds nuw i8, ptr %0, i64 48
  store ptr @.str.12, ptr %27, align 8
  %28 = load ptr, ptr @WAYLAND_wl_proxy_marshal_flags, align 8
  %29 = load ptr, ptr @WAYLAND_wl_proxy_get_version, align 8
  %30 = tail call i32 %29(ptr noundef nonnull %6) #12
  %31 = tail call ptr (ptr, i32, ptr, i32, i32, ...) %28(ptr noundef nonnull %6, i32 noundef 0, ptr noundef null, i32 noundef %30, i32 noundef 0, i32 noundef %2, ptr noundef nonnull @.str.12) #12
  br label %32

32:                                               ; preds = %26, %23
  call void @llvm.lifetime.start.p0(i64 8, ptr nonnull %8) #12
  store i64 0, ptr %8, align 8
  %33 = tail call ptr @SDL_GetVideoDevice() #12
  %34 = call ptr @Wayland_GetTextMimeTypes(ptr noundef %33, ptr noundef nonnull %8) #12
  %35 = load i64, ptr %8, align 8
  %.not72 = icmp eq i64 %35, 0
  br i1 %.not72, label %.loopexit, label %.lr.ph

.lr.ph:                                           ; preds = %32, %48
  %.06571 = phi i64 [ %49, %48 ], [ 0, %32 ]
  %36 = load ptr, ptr %15, align 8
  %37 = getelementptr inbounds nuw ptr, ptr %34, i64 %.06571
  %38 = load ptr, ptr %37, align 8
  %39 = call zeroext i1 @Wayland_data_offer_has_mime(ptr noundef %36, ptr noundef %38) #12
  br i1 %39, label %40, label %48

40:                                               ; preds = %.lr.ph
  %41 = getelementptr inbounds nuw ptr, ptr %34, i64 %.06571
  store i8 1, ptr %10, align 1
  %42 = load ptr, ptr %41, align 8
  %43 = getelementptr inbounds nuw i8, ptr %0, i64 48
  store ptr %42, ptr %43, align 8
  %44 = load ptr, ptr @WAYLAND_wl_proxy_marshal_flags, align 8
  %45 = load ptr, ptr @WAYLAND_wl_proxy_get_version, align 8
  %46 = call i32 %45(ptr noundef nonnull %6) #12
  %47 = call ptr (ptr, i32, ptr, i32, i32, ...) %44(ptr noundef nonnull %6, i32 noundef 0, ptr noundef null, i32 noundef %46, i32 noundef 0, i32 noundef %2, ptr noundef %42) #12
  br label %.loopexit

48:                                               ; preds = %.lr.ph
  %49 = add nuw i64 %.06571, 1
  %50 = load i64, ptr %8, align 8
  %51 = icmp ult i64 %49, %50
  br i1 %51, label %.lr.ph, label %.loopexit, !llvm.loop !24

.loopexit:                                        ; preds = %48, %32, %40
  %52 = load i8, ptr %9, align 8, !range !6, !noundef !7
  %53 = trunc nuw i8 %52 to i1
  br i1 %53, label %62, label %54

54:                                               ; preds = %.loopexit
  %55 = load i8, ptr %10, align 1, !range !6, !noundef !7
  %56 = trunc nuw i8 %55 to i1
  br i1 %56, label %62, label %57

57:                                               ; preds = %54
  %58 = load ptr, ptr @WAYLAND_wl_proxy_marshal_flags, align 8
  %59 = load ptr, ptr @WAYLAND_wl_proxy_get_version, align 8
  %60 = call i32 %59(ptr noundef nonnull %6) #12
  %61 = call ptr (ptr, i32, ptr, i32, i32, ...) %58(ptr noundef nonnull %6, i32 noundef 0, ptr noundef null, i32 noundef %60, i32 noundef 0, i32 noundef %2, ptr noundef null) #12
  br label %62

62:                                               ; preds = %.loopexit, %54, %57
  %.0 = phi i32 [ 0, %57 ], [ 1, %54 ], [ 1, %.loopexit ]
  %63 = load ptr, ptr %15, align 8
  %64 = load ptr, ptr %63, align 8
  %65 = load ptr, ptr @WAYLAND_wl_proxy_get_version, align 8
  %66 = call i32 %65(ptr noundef %64) #12
  %67 = icmp ugt i32 %66, 2
  br i1 %67, label %68, label %75

68:                                               ; preds = %62
  %69 = load ptr, ptr %15, align 8
  %70 = load ptr, ptr %69, align 8
  %71 = load ptr, ptr @WAYLAND_wl_proxy_marshal_flags, align 8
  %72 = load ptr, ptr @WAYLAND_wl_proxy_get_version, align 8
  %73 = call i32 %72(ptr noundef %70) #12
  %74 = call ptr (ptr, i32, ptr, i32, i32, ...) %71(ptr noundef %70, i32 noundef 4, ptr noundef null, i32 noundef %73, i32 noundef 0, i32 noundef range(i32 0, 2) %.0, i32 noundef range(i32 0, 2) %.0) #12
  br label %75

75:                                               ; preds = %68, %62
  %.not69 = icmp eq ptr %3, null
  br i1 %.not69, label %104, label %76

76:                                               ; preds = %75
  %77 = call ptr @Wayland_GetWindowDataForOwnedSurface(ptr noundef nonnull %3) #12
  %.not70 = icmp eq ptr %77, null
  br i1 %.not70, label %98, label %78

78:                                               ; preds = %76
  %79 = load ptr, ptr %77, align 8
  %80 = getelementptr inbounds nuw i8, ptr %0, i64 64
  store ptr %79, ptr %80, align 8
  %81 = sext i32 %4 to i64
  %82 = add nsw i64 %81, 4807592602218004480
  %83 = bitcast i64 %82 to double
  %84 = fadd double %83, 0xC2B8000000000000
  %85 = fptrunc double %84 to float
  %86 = sext i32 %5 to i64
  %87 = add nsw i64 %86, 4807592602218004480
  %88 = bitcast i64 %87 to double
  %89 = fadd double %88, 0xC2B8000000000000
  %90 = fptrunc double %89 to float
  %91 = call zeroext i1 @SDL_SendDropPosition(ptr noundef %79, float noundef %85, float noundef %90) #12
  %92 = load ptr, ptr @WAYLAND_wl_proxy_get_id, align 8
  %93 = call i32 %92(ptr noundef nonnull %6) #12
  %94 = sdiv i32 %4, 256
  %95 = sdiv i32 %5, 256
  %96 = load ptr, ptr %80, align 8
  %97 = call i32 @SDL_GetWindowID_REAL(ptr noundef %96) #12
  call void (i32, ptr, ...) @SDL_LogTrace_REAL(i32 noundef 7, ptr noundef nonnull @.str.13, i32 noundef %93, i32 noundef %94, i32 noundef %95, i32 noundef %97, i32 noundef %2) #12
  br label %109

98:                                               ; preds = %76
  %99 = getelementptr inbounds nuw i8, ptr %0, i64 64
  store ptr null, ptr %99, align 8
  %100 = load ptr, ptr @WAYLAND_wl_proxy_get_id, align 8
  %101 = call i32 %100(ptr noundef nonnull %6) #12
  %102 = sdiv i32 %4, 256
  %103 = sdiv i32 %5, 256
  call void (i32, ptr, ...) @SDL_LogTrace_REAL(i32 noundef 7, ptr noundef nonnull @.str.14, i32 noundef %101, i32 noundef %102, i32 noundef %103, i32 noundef %2) #12
  br label %109

104:                                              ; preds = %75
  %105 = load ptr, ptr @WAYLAND_wl_proxy_get_id, align 8
  %106 = call i32 %105(ptr noundef nonnull %6) #12
  %107 = sdiv i32 %4, 256
  %108 = sdiv i32 %5, 256
  call void (i32, ptr, ...) @SDL_LogTrace_REAL(i32 noundef 7, ptr noundef nonnull @.str.14, i32 noundef %106, i32 noundef %107, i32 noundef %108, i32 noundef %2) #12
  br label %109

109:                                              ; preds = %78, %98, %104
  call void @llvm.lifetime.end.p0(i64 8, ptr nonnull %8) #12
  br label %113

110:                                              ; preds = %7
  %111 = sdiv i32 %4, 256
  %112 = sdiv i32 %5, 256
  tail call void (i32, ptr, ...) @SDL_LogTrace_REAL(i32 noundef 7, ptr noundef nonnull @.str.14, i32 noundef -1, i32 noundef %111, i32 noundef %112, i32 noundef %2) #12
  br label %113

113:                                              ; preds = %110, %109
  ret void
}